; Function Attrs: mustprogress uwtable
define hidden void @_ZN3mbp10term_graph8add_varsERK10ref_vectorI3app11ast_managerE(ptr noundef nonnull align 8 dereferenceable(244) %0, ptr noundef nonnull readonly align 8 captures(none) dereferenceable(16) %1) local_unnamed_addr #3 align 2 {
  %3 = alloca ptr, align 8
  %4 = getelementptr inbounds nuw i8, ptr %1, i64 8
  %5 = load ptr, ptr %4, align 8, !tbaa !87
  %6 = icmp eq ptr %5, null
  br i1 %6, label %_ZN3mbp10term_graph16is_variable_proc9add_declsERK10ref_vectorI3app11ast_managerE.exit, label %_ZNK15ref_vector_coreI3app19ref_manager_wrapperIS0_11ast_managerEE3endEv.exit.i

_ZNK15ref_vector_coreI3app19ref_manager_wrapperIS0_11ast_managerEE3endEv.exit.i: ; preds = %2
  %7 = getelementptr inbounds i8, ptr %5, i64 -4
  %8 = load i32, ptr %7, align 4, !tbaa !34
  %9 = zext i32 %8 to i64
  %10 = getelementptr inbounds nuw ptr, ptr %5, i64 %9
  %.not9.i = icmp eq i32 %8, 0
  br i1 %.not9.i, label %_ZN3mbp10term_graph16is_variable_proc9add_declsERK10ref_vectorI3app11ast_managerE.exit, label %.lr.ph.i

.lr.ph.i:                                         ; preds = %_ZNK15ref_vector_coreI3app19ref_manager_wrapperIS0_11ast_managerEE3endEv.exit.i
  %11 = getelementptr inbounds nuw i8, ptr %0, i64 176
  br label %12

12:                                               ; preds = %12, %.lr.ph.i
  %.010.i = phi ptr [ %5, %.lr.ph.i ], [ %16, %12 ]
  %13 = load ptr, ptr %.010.i, align 8, !tbaa !90
  call void @llvm.lifetime.start.p0(i64 8, ptr nonnull %3) #27
  %14 = getelementptr inbounds nuw i8, ptr %13, i64 16
  %15 = load ptr, ptr %14, align 8, !tbaa !48
  store ptr %15, ptr %3, align 8, !tbaa !83
  call void @_ZN14core_hashtableI14obj_hash_entryI9func_declE12obj_ptr_hashIS1_E6ptr_eqIS1_EE6insertEOPS1_(ptr noundef nonnull align 8 dereferenceable(20) %11, ptr noundef nonnull align 8 dereferenceable(8) %3)
  call void @llvm.lifetime.end.p0(i64 8, ptr nonnull %3) #27
  %16 = getelementptr inbounds nuw i8, ptr %.010.i, i64 8
  %.not.i = icmp eq ptr %16, %10
  br i1 %.not.i, label %_ZN3mbp10term_graph16is_variable_proc9add_declsERK10ref_vectorI3app11ast_managerE.exit, label %12

_ZN3mbp10term_graph16is_variable_proc9add_declsERK10ref_vectorI3app11ast_managerE.exit: ; preds = %12, %2, %_ZNK15ref_vector_coreI3app19ref_manager_wrapperIS0_11ast_managerEE3endEv.exit.i
  ret void
}